target datalayout = "e-m:e-p270:32:32-p271:32:32-p272:64:64-i64:64-i128:128-f80:128-n8:16:32:64-S128"
target triple = "x86_64-pc-linux-gnu"

%struct.PJconsts = type <{ ptr, ptr, ptr, ptr, ptr, ptr, ptr, ptr, ptr, ptr, ptr, ptr, i32, [4 x i8], ptr, ptr, ptr, ptr, ptr, ptr, ptr, ptr, double, double, double, double, double, double, double, double, double, double, double, double, double, double, double, double, double, double, double, double, double, double, i32, i32, i32, i32, i32, i32, i32, i32, i32, i32, i32, [4 x i8], ptr, ptr, ptr, ptr, ptr, ptr, double, double, double, double, double, double, double, double, double, double, double, i32, [4 x i8], [7 x double], i32, [4 x i8], ptr, ptr, double, double, i32, [4 x i8], %"class.std::shared_ptr", i8, [7 x i8], double, i8, [7 x i8], %"class.std::__cxx11::basic_string", %"class.std::__cxx11::basic_string", %"class.std::__cxx11::basic_string", i8, [7 x i8], %"class.std::vector", i32, [4 x i8], %"class.std::vector.3", i32, i8, i8, i8, i8 }>
%"class.std::shared_ptr" = type { %"class.std::__shared_ptr" }
%"class.std::__shared_ptr" = type { ptr, %"class.std::__shared_count" }
%"class.std::__shared_count" = type { ptr }
%"class.std::__cxx11::basic_string" = type { %"struct.std::__cxx11::basic_string<char>::_Alloc_hider", i64, %union.anon }
%"struct.std::__cxx11::basic_string<char>::_Alloc_hider" = type { ptr }
%union.anon = type { i64, [8 x i8] }
%"class.std::vector" = type { %"struct.std::_Vector_base" }
%"struct.std::_Vector_base" = type { %"struct.std::_Vector_base<osgeo::proj::operation::GridDescription, std::allocator<osgeo::proj::operation::GridDescription>>::_Vector_impl" }
%"struct.std::_Vector_base<osgeo::proj::operation::GridDescription, std::allocator<osgeo::proj::operation::GridDescription>>::_Vector_impl" = type { %"struct.std::_Vector_base<osgeo::proj::operation::GridDescription, std::allocator<osgeo::proj::operation::GridDescription>>::_Vector_impl_data" }
%"struct.std::_Vector_base<osgeo::proj::operation::GridDescription, std::allocator<osgeo::proj::operation::GridDescription>>::_Vector_impl_data" = type { ptr, ptr, ptr }
%"class.std::vector.3" = type { %"struct.std::_Vector_base.4" }
%"struct.std::_Vector_base.4" = type { %"struct.std::_Vector_base<PJCoordOperation, std::allocator<PJCoordOperation>>::_Vector_impl" }
%"struct.std::_Vector_base<PJCoordOperation, std::allocator<PJCoordOperation>>::_Vector_impl" = type { %"struct.std::_Vector_base<PJCoordOperation, std::allocator<PJCoordOperation>>::_Vector_impl_data" }
%"struct.std::_Vector_base<PJCoordOperation, std::allocator<PJCoordOperation>>::_Vector_impl_data" = type { ptr, ptr, ptr }
%struct.PJ_XY = type { double, double }
%struct.PJ_LP = type { double, double }

@_ZL10des_august = internal constant [38 x i8] c"August Epicycloidal\0A\09Misc Sph, no inv\00", align 16
@pj_s_august = hidden constant ptr @_ZL10des_august, align 8
@.str = private unnamed_addr constant [7 x i8] c"august\00", align 1

; Function Attrs: mustprogress uwtable
define hidden ptr @pj_august(ptr noundef %0) #0 {
  %2 = alloca ptr, align 8
  %3 = alloca ptr, align 8
  store ptr %0, ptr %3, align 8
  %4 = load ptr, ptr %3, align 8
  %5 = icmp ne ptr %4, null
  br i1 %5, label %6, label %9

6:                                                ; preds = %1
  %7 = load ptr, ptr %3, align 8
  %8 = call noundef ptr @_Z35pj_projection_specific_setup_augustP8PJconsts(ptr noundef %7)
  store ptr %8, ptr %2, align 8
  br label %26

9:                                                ; preds = %1
  %10 = call noundef ptr @_Z6pj_newv()
  store ptr %10, ptr %3, align 8
  %11 = load ptr, ptr %3, align 8
  %12 = icmp eq ptr null, %11
  br i1 %12, label %13, label %14

13:                                               ; preds = %9
  store ptr null, ptr %2, align 8
  br label %26

14:                                               ; preds = %9
  %15 = load ptr, ptr %3, align 8
  %16 = getelementptr inbounds %struct.PJconsts, ptr %15, i32 0, i32 1
  store ptr @.str, ptr %16, align 8
  %17 = load ptr, ptr %3, align 8
  %18 = getelementptr inbounds %struct.PJconsts, ptr %17, i32 0, i32 2
  store ptr @_ZL10des_august, ptr %18, align 8
  %19 = load ptr, ptr %3, align 8
  %20 = getelementptr inbounds %struct.PJconsts, ptr %19, i32 0, i32 48
  store i32 1, ptr %20, align 8
  %21 = load ptr, ptr %3, align 8
  %22 = getelementptr inbounds %struct.PJconsts, ptr %21, i32 0, i32 53
  store i32 4, ptr %22, align 4
  %23 = load ptr, ptr %3, align 8
  %24 = getelementptr inbounds %struct.PJconsts, ptr %23, i32 0, i32 54
  store i32 1, ptr %24, align 8
  %25 = load ptr, ptr %3, align 8
  store ptr %25, ptr %2, align 8
  br label %26

26:                                               ; preds = %14, %13, %6
  %27 = load ptr, ptr %2, align 8
  ret ptr %27
}

; Function Attrs: mustprogress nounwind uwtable
define hidden noundef ptr @_Z35pj_projection_specific_setup_augustP8PJconsts(ptr noundef %0) #1 {
  %2 = alloca ptr, align 8
  store ptr %0, ptr %2, align 8
  %3 = load ptr, ptr %2, align 8
  %4 = getelementptr inbounds %struct.PJconsts, ptr %3, i32 0, i32 15
  store ptr null, ptr %4, align 8
  %5 = load ptr, ptr %2, align 8
  %6 = getelementptr inbounds %struct.PJconsts, ptr %5, i32 0, i32 14
  store ptr @_ZL16august_s_forward5PJ_LPP8PJconsts, ptr %6, align 8
  %7 = load ptr, ptr %2, align 8
  %8 = getelementptr inbounds %struct.PJconsts, ptr %7, i32 0, i32 28
  store double 0.000000e+00, ptr %8, align 8
  %9 = load ptr, ptr %2, align 8
  ret ptr %9
}

declare noundef ptr @_Z6pj_newv() #2

; Function Attrs: mustprogress nounwind uwtable
define internal { double, double } @_ZL16august_s_forward5PJ_LPP8PJconsts(double %0, double %1, ptr noundef %2) #1 {
  %4 = alloca %struct.PJ_XY, align 8
  %5 = alloca %struct.PJ_LP, align 8
  %6 = alloca ptr, align 8
  %7 = alloca double, align 8
  %8 = alloca double, align 8
  %9 = alloca double, align 8
  %10 = alloca double, align 8
  %11 = alloca double, align 8
  %12 = alloca double, align 8
  %13 = alloca double, align 8
  %14 = getelementptr inbounds { double, double }, ptr %5, i32 0, i32 0
  store double %0, ptr %14, align 8
  %15 = getelementptr inbounds { double, double }, ptr %5, i32 0, i32 1
  store double %1, ptr %15, align 8
  store ptr %2, ptr %6, align 8
  call void @llvm.memset.p0.i64(ptr align 8 %4, i8 0, i64 16, i1 false)
  %16 = getelementptr inbounds %struct.PJ_LP, ptr %5, i32 0, i32 1
  %17 = load double, ptr %16, align 8
  %18 = fmul double 5.000000e-01, %17
  %19 = call double @tan(double noundef %18) #6
  store double %19, ptr %7, align 8
  %20 = load double, ptr %7, align 8
  %21 = load double, ptr %7, align 8
  %22 = fneg double %20
  %23 = call double @llvm.fmuladd.f64(double %22, double %21, double 1.000000e+00)
  %24 = call double @sqrt(double noundef %23) #6
  store double %24, ptr %8, align 8
  %25 = getelementptr inbounds %struct.PJ_LP, ptr %5, i32 0, i32 0
  %26 = load double, ptr %25, align 8
  %27 = fmul double %26, 5.000000e-01
  store double %27, ptr %25, align 8
  %28 = load double, ptr %8, align 8
  %29 = getelementptr inbounds %struct.PJ_LP, ptr %5, i32 0, i32 0
  %30 = load double, ptr %29, align 8
  %31 = call double @cos(double noundef %30) #6
  %32 = call double @llvm.fmuladd.f64(double %28, double %31, double 1.000000e+00)
  store double %32, ptr %9, align 8
  %33 = getelementptr inbounds %struct.PJ_LP, ptr %5, i32 0, i32 0
  %34 = load double, ptr %33, align 8
  %35 = call double @sin(double noundef %34) #6
  %36 = load double, ptr %8, align 8
  %37 = fmul double %35, %36
  %38 = load double, ptr %9, align 8
  %39 = fdiv double %37, %38
  store double %39, ptr %10, align 8
  %40 = load double, ptr %7, align 8
  %41 = load double, ptr %9, align 8
  %42 = fdiv double %40, %41
  store double %42, ptr %12, align 8
  %43 = load double, ptr %10, align 8
  %44 = load double, ptr %10, align 8
  %45 = fmul double %43, %44
  store double %45, ptr %11, align 8
  %46 = load double, ptr %12, align 8
  %47 = load double, ptr %12, align 8
  %48 = fmul double %46, %47
  store double %48, ptr %13, align 8
  %49 = load double, ptr %10, align 8
  %50 = fmul double 0x3FF5555555555554, %49
  %51 = load double, ptr %11, align 8
  %52 = fadd double 3.000000e+00, %51
  %53 = load double, ptr %13, align 8
  %54 = call double @llvm.fmuladd.f64(double -3.000000e+00, double %53, double %52)
  %55 = fmul double %50, %54
  %56 = getelementptr inbounds %struct.PJ_XY, ptr %4, i32 0, i32 0
  store double %55, ptr %56, align 8
  %57 = load double, ptr %12, align 8
  %58 = fmul double 0x3FF5555555555554, %57
  %59 = load double, ptr %11, align 8
  %60 = call double @llvm.fmuladd.f64(double 3.000000e+00, double %59, double 3.000000e+00)
  %61 = load double, ptr %13, align 8
  %62 = fsub double %60, %61
  %63 = fmul double %58, %62
  %64 = getelementptr inbounds %struct.PJ_XY, ptr %4, i32 0, i32 1
  store double %63, ptr %64, align 8
  %65 = load { double, double }, ptr %4, align 8
  ret { double, double } %65
}

; Function Attrs: nocallback nofree nounwind willreturn memory(argmem: write)
declare void @llvm.memset.p0.i64(ptr nocapture writeonly, i8, i64, i1 immarg) #3

; Function Attrs: nounwind
declare double @tan(double noundef) #4

; Function Attrs: nounwind
declare double @sqrt(double noundef) #4

; Function Attrs: nocallback nofree nosync nounwind speculatable willreturn memory(none)
declare double @llvm.fmuladd.f64(double, double, double) #5

; Function Attrs: nounwind
declare double @cos(double noundef) #4

; Function Attrs: nounwind
declare double @sin(double noundef) #4


!llvm.module.flags = !{!0, !1, !2, !3}

!0 = !{i32 1, !"wchar_size", i32 4}
!1 = !{i32 8, !"PIC Level", i32 2}
!2 = !{i32 7, !"uwtable", i32 2}
!3 = !{i32 7, !"frame-pointer", i32 2}
