; ModuleID = 'bench/proj/original/august.cpp.ll'
source_filename = "bench/proj/original/august.cpp.ll"
target datalayout = "e-m:e-p270:32:32-p271:32:32-p272:64:64-i64:64-i128:128-f80:128-n8:16:32:64-S128"
target triple = "x86_64-pc-linux-gnu"

@_ZL10des_august = internal constant [38 x i8] c"August Epicycloidal\0A\09Misc Sph, no inv\00", align 16
@pj_s_august = hidden local_unnamed_addr constant ptr @_ZL10des_august, align 8
@.str = private unnamed_addr constant [7 x i8] c"august\00", align 1

; Function Attrs: mustprogress uwtable
define hidden noundef ptr @pj_august(ptr noundef writeonly %0) local_unnamed_addr #0 {
  %.not = icmp eq ptr %0, null
  br i1 %.not, label %6, label %2

2:                                                ; preds = %1
  %3 = getelementptr inbounds i8, ptr %0, i64 112
  store ptr null, ptr %3, align 8
  %4 = getelementptr inbounds i8, ptr %0, i64 104
  store ptr @_ZL16august_s_forward5PJ_LPP8PJconsts, ptr %4, align 8
  %5 = getelementptr inbounds i8, ptr %0, i64 216
  store double 0.000000e+00, ptr %5, align 8
  br label %15

6:                                                ; preds = %1
  %7 = tail call noundef ptr @_Z6pj_newv()
  %8 = icmp eq ptr %7, null
  br i1 %8, label %15, label %9

9:                                                ; preds = %6
  %10 = getelementptr inbounds i8, ptr %7, i64 8
  store ptr @.str, ptr %10, align 8
  %11 = getelementptr inbounds i8, ptr %7, i64 16
  store ptr @_ZL10des_august, ptr %11, align 8
  %12 = getelementptr inbounds i8, ptr %7, i64 360
  store i32 1, ptr %12, align 8
  %13 = getelementptr inbounds i8, ptr %7, i64 380
  store i32 4, ptr %13, align 4
  %14 = getelementptr inbounds i8, ptr %7, i64 384
  store i32 1, ptr %14, align 8
  br label %15

15:                                               ; preds = %6, %9, %2
  %.0 = phi ptr [ %0, %2 ], [ %7, %9 ], [ null, %6 ]
  ret ptr %.0
}

; Function Attrs: mustprogress nofree norecurse nosync nounwind willreturn memory(argmem: write) uwtable
define hidden noundef ptr @_Z35pj_projection_specific_setup_augustP8PJconsts(ptr noundef returned writeonly %0) local_unnamed_addr #1 {
  %2 = getelementptr inbounds i8, ptr %0, i64 112
  store ptr null, ptr %2, align 8
  %3 = getelementptr inbounds i8, ptr %0, i64 104
  store ptr @_ZL16august_s_forward5PJ_LPP8PJconsts, ptr %3, align 8
  %4 = getelementptr inbounds i8, ptr %0, i64 216
  store double 0.000000e+00, ptr %4, align 8
  ret ptr %0
}

declare noundef ptr @_Z6pj_newv() local_unnamed_addr #2

; Function Attrs: mustprogress nofree nounwind willreturn memory(write) uwtable
define internal { double, double } @_ZL16august_s_forward5PJ_LPP8PJconsts(double %0, double %1, ptr nocapture readnone %2) #3 {
  %4 = fmul double %1, 5.000000e-01
  %5 = tail call double @tan(double noundef %4) #6
  %6 = fneg double %5
  %7 = tail call double @llvm.fmuladd.f64(double %6, double %5, double 1.000000e+00)
  %8 = tail call double @sqrt(double noundef %7) #6
  %9 = fmul double %0, 5.000000e-01
  %10 = tail call double @cos(double noundef %9) #6
  %11 = tail call double @llvm.fmuladd.f64(double %8, double %10, double 1.000000e+00)
  %12 = tail call double @sin(double noundef %9) #6
  %13 = fmul double %8, %12
  %14 = insertelement <2 x double> poison, double %13, i64 0
  %15 = insertelement <2 x double> %14, double %5, i64 1
  %16 = insertelement <2 x double> poison, double %11, i64 0
  %17 = shufflevector <2 x double> %16, <2 x double> poison, <2 x i32> zeroinitializer
  %18 = fdiv <2 x double> %15, %17
  %19 = fmul <2 x double> %18, %18
  %20 = extractelement <2 x double> %19, i64 0
  %21 = fmul <2 x double> %18, %18
  %22 = extractelement <2 x double> %21, i64 1
  %23 = fadd double %20, 3.000000e+00
  %24 = tail call double @llvm.fmuladd.f64(double %22, double -3.000000e+00, double %23)
  %25 = fmul <2 x double> %18, <double 0x3FF5555555555554, double 0x3FF5555555555554>
  %26 = tail call double @llvm.fmuladd.f64(double %20, double 3.000000e+00, double 3.000000e+00)
  %27 = fsub double %26, %22
  %28 = insertelement <2 x double> poison, double %24, i64 0
  %29 = insertelement <2 x double> %28, double %27, i64 1
  %30 = fmul <2 x double> %25, %29
  %31 = extractelement <2 x double> %30, i64 0
  %.fca.0.insert = insertvalue { double, double } poison, double %31, 0
  %32 = extractelement <2 x double> %30, i64 1
  %.fca.1.insert = insertvalue { double, double } %.fca.0.insert, double %32, 1
  ret { double, double } %.fca.1.insert
}

; Function Attrs: mustprogress nofree nounwind willreturn memory(write)
declare double @tan(double noundef) local_unnamed_addr #4

; Function Attrs: mustprogress nofree nounwind willreturn memory(write)
declare double @sqrt(double noundef) local_unnamed_addr #4

; Function Attrs: mustprogress nocallback nofree nosync nounwind speculatable willreturn memory(none)
declare double @llvm.fmuladd.f64(double, double, double) #5

; Function Attrs: mustprogress nofree nounwind willreturn memory(write)
declare double @cos(double noundef) local_unnamed_addr #4

; Function Attrs: mustprogress nofree nounwind willreturn memory(write)
declare double @sin(double noundef) local_unnamed_addr #4


!llvm.module.flags = !{!0, !1, !2, !3}

!0 = !{i32 1, !"wchar_size", i32 4}
!1 = !{i32 8, !"PIC Level", i32 2}
!2 = !{i32 7, !"uwtable", i32 2}
!3 = !{i32 7, !"frame-pointer", i32 2}
